Certificate:
    Data:
        Version: 3 (0x2)
        Serial Number: 2 (0x2)
    Signature Algorithm: sha256WithRSAEncryption
        Issuer: C=US, ST=CA, L=SanFrancisco, O=Fort-Funston, OU=MyOrganizationalUnit, CN=Fort-Funston CA/name=EasyRSA/emailAddress=me@myhost.mydomain
        Validity
            Not Before: Aug 28 19:23:24 2017 GMT
            Not After : Aug 26 19:23:24 2027 GMT
        Subject: C=US, ST=CA, L=SanFrancisco, O=Fort-Funston, OU=MyOrganizationalUnit, CN=client1/name=EasyRSA/emailAddress=me@myhost.mydomain
        Subject Public Key Info:
            Public Key Algorithm: rsaEncryption
                Public-Key: (2048 bit)
                Modulus:
                    00:d1:cb:1c:aa:ed:3e:50:15:b3:b8:21:66:4a:02:
                    d2:d0:3c:40:bd:c0:7e:a8:2d:48:3e:3c:8f:a8:8e:
                    60:ba:d3:27:d7:ba:e5:93:7f:60:8b:d4:37:b1:43:
                    78:12:08:c4:d5:56:7b:69:59:33:94:c2:0f:0a:1d:
                    1f:7b:47:ab:f4:6c:4f:07:86:cc:4a:26:43:dc:9b:
                    28:f3:0f:88:6f:be:26:d8:cb:7a:d7:2d:7d:27:33:
                    4e:5f:73:7d:b3:85:1f:01:df:d7:30:85:d9:30:ce:
                    8a:0b:b4:6c:d7:68:48:ed:21:0a:60:2c:47:57:b8:
                    29:e4:35:fb:00:0d:bb:b8:98:57:9f:63:55:e0:3d:
                    3e:e3:40:79:6d:df:58:e4:a2:3a:b3:ed:11:45:05:
                    15:8f:fa:e2:75:ca:c6:4f:60:7c:a6:c9:a0:bc:e1:
                    6d:82:82:cb:15:77:32:a7:b3:74:7b:bc:a3:cf:3c:
                    64:ca:06:a5:62:9e:3a:3d:79:d9:7b:c3:e1:b0:c6:
                    fb:86:82:5e:ac:26:3b:2b:66:de:95:c2:80:60:eb:
                    c8:f4:9c:51:fe:aa:c7:ff:f5:12:bf:a0:67:67:d9:
                    b3:eb:43:12:b3:bc:a2:d1:91:4f:0e:e6:ea:19:b2:
                    24:1a:73:d7:b3:5b:23:48:61:4c:10:dc:a1:13:7e:
                    2b:37
                Exponent: 65537 (0x10001)
        X509v3 extensions:
            X509v3 Basic Constraints: 
                CA:FALSE
            Netscape Comment: 
                Easy-RSA Generated Certificate
            X509v3 Subject Key Identifier: 
                F4:81:AA:2D:0E:D4:D9:46:97:02:DE:9B:AD:9B:D3:CA:51:EA:18:3E
            X509v3 Authority Key Identifier: 
                keyid:A1:79:C2:56:B7:E1:D1:16:CF:3A:34:4A:1A:2E:E8:A6:F3:A1:BF:30
                DirName:/C=US/ST=CA/L=SanFrancisco/O=Fort-Funston/OU=MyOrganizationalUnit/CN=Fort-Funston CA/name=EasyRSA/emailAddress=me@myhost.mydomain
                serial:9E:5C:AD:10:FE:57:4D:D3

            X509v3 Extended Key Usage: 
                TLS Web Client Authentication
            X509v3 Key Usage: 
                Digital Signature
            X509v3 Subject Alternative Name: 
                DNS:client1
    Signature Algorithm: sha256WithRSAEncryption
         c2:0b:ab:d8:da:f3:d9:72:12:b7:45:71:17:ea:61:84:01:69:
         f0:72:62:41:b3:db:c7:07:db:31:f2:1d:6f:4d:87:fb:31:a5:
         a2:75:1f:39:c0:d5:74:13:3d:5b:9f:24:00:c5:ec:d5:bb:49:
         9b:00:54:a7:92:aa:c7:c7:2b:d7:a1:50:8f:89:04:86:da:79:
         50:ad:14:27:ff:3b:1f:9f:2f:6e:53:09:0a:fd:e0:60:d2:43:
         e6:16:47:81:23:f2:bc:f5:ac:ff:0d:d5:78:8b:f5:83:2b:51:
         29:38:2c:7f:a3:46:90:6d:b0:06:59:66:5e:88:74:ef:84:8c:
         36:f6:67:c7:ce:d2:23:19:d3:84:66:22:c8:70:cb:9f:ea:d6:
         18:f0:38:58:63:df:4f:30:8c:ae:41:d8:1c:70:ec:6d:89:02:
         2d:a7:2d:82:f9:e8:67:1f:a6:8b:21:51:f4:5d:07:52:eb:3e:
         84:7e:ca:92:0f:8b:24:6c:f9:1a:25:84:c4:cd:ea:6d:a3:8f:
         66:46:dc:9f:5d:09:bd:ae:89:49:51:b6:12:1a:ee:ed:98:9d:
         6e:fa:d2:0e:c1:6d:51:87:ea:43:57:fe:7c:3c:a8:f5:7b:f9:
         86:d4:f6:11:93:77:3f:d4:68:1b:e6:bc:fa:a5:3c:8f:af:e0:
         6e:87:f8:a7
-----BEGIN CERTIFICATE-----
MIIFZDCCBEygAwIBAgIBAjANBgkqhkiG9w0BAQsFADCBtjELMAkGA1UEBhMCVVMx
CzAJBgNVBAgTAkNBMRUwEwYDVQQHEwxTYW5GcmFuY2lzY28xFTATBgNVBAoTDEZv
cnQtRnVuc3RvbjEdMBsGA1UECxMUTXlPcmdhbml6YXRpb25hbFVuaXQxGDAWBgNV
BAMTD0ZvcnQtRnVuc3RvbiBDQTEQMA4GA1UEKRMHRWFzeVJTQTEhMB8GCSqGSIb3
DQEJARYSbWVAbXlob3N0Lm15ZG9tYWluMB4XDTE3MDgyODE5MjMyNFoXDTI3MDgy
NjE5MjMyNFowga4xCzAJBgNVBAYTAlVTMQswCQYDVQQIEwJDQTEVMBMGA1UEBxMM
U2FuRnJhbmNpc2NvMRUwEwYDVQQKEwxGb3J0LUZ1bnN0b24xHTAbBgNVBAsTFE15
T3JnYW5pemF0aW9uYWxVbml0MRAwDgYDVQQDEwdjbGllbnQxMRAwDgYDVQQpEwdF
YXN5UlNBMSEwHwYJKoZIhvcNAQkBFhJtZUBteWhvc3QubXlkb21haW4wggEiMA0G
CSqGSIb3DQEBAQUAA4IBDwAwggEKAoIBAQDRyxyq7T5QFbO4IWZKAtLQPEC9wH6o
LUg+PI+ojmC60yfXuuWTf2CL1DexQ3gSCMTVVntpWTOUwg8KHR97R6v0bE8HhsxK
JkPcmyjzD4hvvibYy3rXLX0nM05fc32zhR8B39cwhdkwzooLtGzXaEjtIQpgLEdX
uCnkNfsADbu4mFefY1XgPT7jQHlt31jkojqz7RFFBRWP+uJ1ysZPYHymyaC84W2C
gssVdzKns3R7vKPPPGTKBqVinjo9edl7w+GwxvuGgl6sJjsrZt6VwoBg68j0nFH+
qsf/9RK/oGdn2bPrQxKzvKLRkU8O5uoZsiQac9ezWyNIYUwQ3KETfis3AgMBAAGj
ggGBMIIBfTAJBgNVHRMEAjAAMC0GCWCGSAGG+EIBDQQgFh5FYXN5LVJTQSBHZW5l
cmF0ZWQgQ2VydGlmaWNhdGUwHQYDVR0OBBYEFPSBqi0O1NlGlwLem62b08pR6hg+
MIHrBgNVHSMEgeMwgeCAFKF5wla34dEWzzo0Shou6Kbzob8woYG8pIG5MIG2MQsw
CQYDVQQGEwJVUzELMAkGA1UECBMCQ0ExFTATBgNVBAcTDFNhbkZyYW5jaXNjbzEV
MBMGA1UEChMMRm9ydC1GdW5zdG9uMR0wGwYDVQQLExRNeU9yZ2FuaXphdGlvbmFs
VW5pdDEYMBYGA1UEAxMPRm9ydC1GdW5zdG9uIENBMRAwDgYDVQQpEwdFYXN5UlNB
MSEwHwYJKoZIhvcNAQkBFhJtZUBteWhvc3QubXlkb21haW6CCQCeXK0Q/ldN0zAT
BgNVHSUEDDAKBggrBgEFBQcDAjALBgNVHQ8EBAMCB4AwEgYDVR0RBAswCYIHY2xp
ZW50MTANBgkqhkiG9w0BAQsFAAOCAQEAwgur2Nrz2XISt0VxF+phhAFp8HJiQbPb
xwfbMfIdb02H+zGlonUfOcDVdBM9W58kAMXs1btJmwBUp5Kqx8cr16FQj4kEhtp5
UK0UJ/87H58vblMJCv3gYNJD5hZHgSPyvPWs/w3VeIv1gytRKTgsf6NGkG2wBllm
Xoh074SMNvZnx87SIxnThGYiyHDLn+rWGPA4WGPfTzCMrkHYHHDsbYkCLactgvno
Zx+miyFR9F0HUus+hH7Kkg+LJGz5GiWExM3qbaOPZkbcn10Jva6JSVG2Ehru7Zid
bvrSDsFtUYfqQ1f+fDyo9Xv5htT2EZN3P9RoG+a8+qU8j6/gbof4pw==
-----END CERTIFICATE-----
