Certificate:
    Data:
        Version: 3 (0x2)
        Serial Number: 2 (0x2)
    Signature Algorithm: sha256WithRSAEncryption
        Issuer: C=US, ST=CA, L=SanFrancisco, O=Fort-Funston, OU=MyOrganizationalUnit, CN=Fort-Funston CA/name=EasyRSA/emailAddress=me@myhost.mydomain
        Validity
            Not Before: May 26 22:02:39 2017 GMT
            Not After : May 24 22:02:39 2027 GMT
        Subject: C=US, ST=CA, L=SanFrancisco, O=Fort-Funston, OU=MyOrganizationalUnit, CN=client1/name=EasyRSA/emailAddress=me@myhost.mydomain
        Subject Public Key Info:
            Public Key Algorithm: rsaEncryption
                Public-Key: (2048 bit)
                Modulus:
                    00:d4:2e:0a:cb:35:91:ed:0b:4b:bc:1e:5e:ce:0f:
                    5c:5b:f5:6c:99:32:a4:b4:a1:d8:3b:14:4b:5f:a2:
                    c5:0a:7f:1c:c6:39:4a:59:3a:fc:8b:28:e8:b4:9d:
                    67:9d:87:38:49:97:e7:8e:b9:f4:80:13:42:43:f3:
                    0d:b1:f6:d4:ce:17:50:40:32:36:f2:82:cf:28:c3:
                    93:f4:d6:49:ef:91:fc:98:91:d2:a4:d7:e1:1b:48:
                    02:e8:e3:e4:78:1c:9e:80:41:4f:61:2d:21:7f:96:
                    81:cb:51:85:87:62:b8:bf:ce:bc:3c:db:6b:23:3b:
                    53:57:83:7a:16:aa:52:0c:15:47:92:5d:64:0e:c6:
                    6c:08:0f:40:a4:18:9f:d0:d5:8b:f5:c2:5a:c5:68:
                    e7:8b:af:af:4b:6e:6d:f8:26:da:ef:43:ab:da:ba:
                    e7:90:be:49:6f:44:3a:bc:f3:be:4f:c3:c7:52:58:
                    ee:f7:f4:7e:d5:27:94:7d:60:20:b4:31:13:82:f0:
                    ed:93:f2:49:06:b7:2f:62:4d:99:90:96:e9:c8:f3:
                    e4:b0:e5:d0:23:b1:b3:86:c3:5f:eb:9e:d8:77:26:
                    bc:54:e3:1c:3c:6b:40:a8:6b:b9:e1:6e:20:b5:63:
                    65:6c:aa:0a:e1:c4:3a:11:11:7f:18:88:fd:ab:aa:
                    17:3f
                Exponent: 65537 (0x10001)
        X509v3 extensions:
            X509v3 Basic Constraints: 
                CA:FALSE
            Netscape Comment: 
                Easy-RSA Generated Certificate
            X509v3 Subject Key Identifier: 
                F6:96:7D:1A:75:B6:5E:71:29:00:88:75:8E:46:F4:2F:45:51:6A:A6
            X509v3 Authority Key Identifier: 
                keyid:E6:97:A7:D0:3C:95:02:D8:C7:5F:7F:79:3C:DB:07:34:21:B3:13:81
                DirName:/C=US/ST=CA/L=SanFrancisco/O=Fort-Funston/OU=MyOrganizationalUnit/CN=Fort-Funston CA/name=EasyRSA/emailAddress=me@myhost.mydomain
                serial:BF:8C:97:0D:66:00:F7:A1

            X509v3 Extended Key Usage: 
                TLS Web Client Authentication
            X509v3 Key Usage: 
                Digital Signature
            X509v3 Subject Alternative Name: 
                DNS:client1
    Signature Algorithm: sha256WithRSAEncryption
         94:5c:1e:f3:76:ab:0c:49:1f:26:88:6c:e8:fd:cb:7e:68:41:
         26:d7:ab:4b:00:05:89:db:94:ef:d0:52:49:7b:cc:e7:e0:d6:
         ce:ff:3c:45:a1:ba:61:ad:74:56:dc:d1:31:90:3f:f3:1f:e0:
         b3:0c:9d:67:62:4f:81:57:cb:11:48:cf:56:3d:ad:15:21:f9:
         0d:20:10:95:da:e7:06:9e:3c:1d:7d:a2:ea:d6:1a:aa:e3:a1:
         ae:eb:cb:34:7c:a8:b4:ce:26:c8:e1:73:fc:38:c2:55:32:40:
         a4:78:19:ad:4a:8f:9d:11:7f:12:f0:26:3b:52:9b:cd:ba:26:
         f5:64:43:3d:c7:e3:3d:d5:ed:81:6b:ec:28:0e:19:08:37:8a:
         93:44:82:bc:73:d2:2b:6e:02:86:9f:e5:32:b0:7f:aa:27:a2:
         6e:7c:db:43:d9:79:f7:fc:24:71:56:3e:42:01:a4:21:38:a1:
         78:be:09:2b:2a:38:48:f6:02:cc:d3:d6:31:d0:f1:4c:12:b4:
         56:ea:c3:e9:63:cc:56:0e:20:cc:9a:e2:0e:ae:3e:be:7e:c6:
         1c:f7:ce:cc:39:b9:d3:97:cb:2d:90:74:41:32:0e:9a:65:e9:
         04:4b:df:96:76:f6:06:31:61:9c:ee:6e:bc:ad:21:e4:29:cb:
         0f:40:df:8e
-----BEGIN CERTIFICATE-----
MIIFZDCCBEygAwIBAgIBAjANBgkqhkiG9w0BAQsFADCBtjELMAkGA1UEBhMCVVMx
CzAJBgNVBAgTAkNBMRUwEwYDVQQHEwxTYW5GcmFuY2lzY28xFTATBgNVBAoTDEZv
cnQtRnVuc3RvbjEdMBsGA1UECxMUTXlPcmdhbml6YXRpb25hbFVuaXQxGDAWBgNV
BAMTD0ZvcnQtRnVuc3RvbiBDQTEQMA4GA1UEKRMHRWFzeVJTQTEhMB8GCSqGSIb3
DQEJARYSbWVAbXlob3N0Lm15ZG9tYWluMB4XDTE3MDUyNjIyMDIzOVoXDTI3MDUy
NDIyMDIzOVowga4xCzAJBgNVBAYTAlVTMQswCQYDVQQIEwJDQTEVMBMGA1UEBxMM
U2FuRnJhbmNpc2NvMRUwEwYDVQQKEwxGb3J0LUZ1bnN0b24xHTAbBgNVBAsTFE15
T3JnYW5pemF0aW9uYWxVbml0MRAwDgYDVQQDEwdjbGllbnQxMRAwDgYDVQQpEwdF
YXN5UlNBMSEwHwYJKoZIhvcNAQkBFhJtZUBteWhvc3QubXlkb21haW4wggEiMA0G
CSqGSIb3DQEBAQUAA4IBDwAwggEKAoIBAQDULgrLNZHtC0u8Hl7OD1xb9WyZMqS0
odg7FEtfosUKfxzGOUpZOvyLKOi0nWedhzhJl+eOufSAE0JD8w2x9tTOF1BAMjby
gs8ow5P01knvkfyYkdKk1+EbSALo4+R4HJ6AQU9hLSF/loHLUYWHYri/zrw822sj
O1NXg3oWqlIMFUeSXWQOxmwID0CkGJ/Q1Yv1wlrFaOeLr69Lbm34JtrvQ6vauueQ
vklvRDq8875Pw8dSWO739H7VJ5R9YCC0MROC8O2T8kkGty9iTZmQlunI8+Sw5dAj
sbOGw1/rnth3JrxU4xw8a0Coa7nhbiC1Y2VsqgrhxDoREX8YiP2rqhc/AgMBAAGj
ggGBMIIBfTAJBgNVHRMEAjAAMC0GCWCGSAGG+EIBDQQgFh5FYXN5LVJTQSBHZW5l
cmF0ZWQgQ2VydGlmaWNhdGUwHQYDVR0OBBYEFPaWfRp1tl5xKQCIdY5G9C9FUWqm
MIHrBgNVHSMEgeMwgeCAFOaXp9A8lQLYx19/eTzbBzQhsxOBoYG8pIG5MIG2MQsw
CQYDVQQGEwJVUzELMAkGA1UECBMCQ0ExFTATBgNVBAcTDFNhbkZyYW5jaXNjbzEV
MBMGA1UEChMMRm9ydC1GdW5zdG9uMR0wGwYDVQQLExRNeU9yZ2FuaXphdGlvbmFs
VW5pdDEYMBYGA1UEAxMPRm9ydC1GdW5zdG9uIENBMRAwDgYDVQQpEwdFYXN5UlNB
MSEwHwYJKoZIhvcNAQkBFhJtZUBteWhvc3QubXlkb21haW6CCQC/jJcNZgD3oTAT
BgNVHSUEDDAKBggrBgEFBQcDAjALBgNVHQ8EBAMCB4AwEgYDVR0RBAswCYIHY2xp
ZW50MTANBgkqhkiG9w0BAQsFAAOCAQEAlFwe83arDEkfJohs6P3LfmhBJterSwAF
iduU79BSSXvM5+DWzv88RaG6Ya10VtzRMZA/8x/gswydZ2JPgVfLEUjPVj2tFSH5
DSAQldrnBp48HX2i6tYaquOhruvLNHyotM4myOFz/DjCVTJApHgZrUqPnRF/EvAm
O1Kbzbom9WRDPcfjPdXtgWvsKA4ZCDeKk0SCvHPSK24Chp/lMrB/qieibnzbQ9l5
9/wkcVY+QgGkITiheL4JKyo4SPYCzNPWMdDxTBK0VurD6WPMVg4gzJriDq4+vn7G
HPfOzDm505fLLZB0QTIOmmXpBEvflnb2BjFhnO5uvK0h5CnLD0Dfjg==
-----END CERTIFICATE-----
