Certificate:
    Data:
        Version: 3 (0x2)
        Serial Number: 1 (0x1)
    Signature Algorithm: sha256WithRSAEncryption
        Issuer: C=US, ST=CA, L=SanFrancisco, O=Fort-Funston, OU=MyOrganizationalUnit, CN=Fort-Funston CA/name=EasyRSA/emailAddress=me@myhost.mydomain
        Validity
            Not Before: May 26 22:01:37 2017 GMT
            Not After : May 24 22:01:37 2027 GMT
        Subject: C=US, ST=CA, L=SanFrancisco, O=Fort-Funston, OU=MyOrganizationalUnit, CN=server/name=EasyRSA/emailAddress=me@myhost.mydomain
        Subject Public Key Info:
            Public Key Algorithm: rsaEncryption
                Public-Key: (2048 bit)
                Modulus:
                    00:c6:d0:a1:9f:08:28:b3:de:fa:07:3f:22:2a:59:
                    c4:90:26:dc:8b:0d:3e:15:44:a0:2c:00:b5:9d:62:
                    eb:90:fa:65:d6:f4:dd:17:16:dd:0c:8c:24:a9:5a:
                    df:a0:55:56:d2:51:80:66:b8:66:ce:5e:d5:f2:29:
                    eb:8f:43:fb:5c:55:0b:0d:77:a4:c7:73:51:7a:3b:
                    21:b4:0d:ae:f3:83:3f:ac:e0:15:73:76:72:61:06:
                    c4:d9:95:14:69:83:17:21:e0:fa:86:2c:61:2c:23:
                    2c:f0:fb:02:53:90:31:3f:86:10:59:e9:2e:91:8b:
                    87:7f:e0:ec:83:fd:3d:22:60:73:a0:72:db:64:b6:
                    22:9d:01:0d:de:22:1c:b6:84:52:a1:a8:09:00:3c:
                    c8:f0:e8:b1:f7:04:f0:d5:34:3b:3c:2a:c7:51:b2:
                    be:88:89:3c:d6:af:3f:8d:9c:f1:60:30:25:a6:ce:
                    2d:ec:dd:5d:dd:be:22:17:fc:c7:2e:cc:20:a8:46:
                    06:93:51:48:86:03:55:0c:e6:c5:a5:08:69:21:ee:
                    c5:cc:59:98:de:c1:13:c9:a7:c1:f7:65:33:5a:63:
                    13:01:f4:56:2f:24:a2:0b:ee:fd:44:da:80:fc:70:
                    85:20:4c:15:c2:a2:67:c8:d9:87:94:5f:94:b3:5c:
                    c0:bb
                Exponent: 65537 (0x10001)
        X509v3 extensions:
            X509v3 Basic Constraints: 
                CA:FALSE
            Netscape Cert Type: 
                SSL Server
            Netscape Comment: 
                Easy-RSA Generated Server Certificate
            X509v3 Subject Key Identifier: 
                07:90:83:FB:04:18:B5:A9:3C:AF:58:5C:FE:FC:20:62:2F:36:14:FD
            X509v3 Authority Key Identifier: 
                keyid:E6:97:A7:D0:3C:95:02:D8:C7:5F:7F:79:3C:DB:07:34:21:B3:13:81
                DirName:/C=US/ST=CA/L=SanFrancisco/O=Fort-Funston/OU=MyOrganizationalUnit/CN=Fort-Funston CA/name=EasyRSA/emailAddress=me@myhost.mydomain
                serial:BF:8C:97:0D:66:00:F7:A1

            X509v3 Extended Key Usage: 
                TLS Web Server Authentication
            X509v3 Key Usage: 
                Digital Signature, Key Encipherment
            X509v3 Subject Alternative Name: 
                DNS:server
    Signature Algorithm: sha256WithRSAEncryption
         29:57:29:e3:91:82:96:18:bf:58:b4:33:59:5f:a6:6a:bd:ef:
         f0:29:16:3b:b0:39:e9:ba:f5:e4:2f:fa:39:dc:dd:f2:4f:81:
         77:6d:c4:61:e0:fb:1c:40:65:0e:8b:43:6b:d7:f4:70:c4:ba:
         bd:28:af:8a:a5:f0:d6:ea:af:5d:c1:23:94:06:94:5b:8d:f9:
         49:50:b6:82:5c:ea:16:24:1c:6f:b3:a6:3a:8e:3f:1f:f7:88:
         99:18:32:34:8f:50:03:07:0e:42:cf:9f:d0:f8:72:af:2f:92:
         75:f7:7f:d3:ab:13:cb:09:4c:7b:04:23:09:d6:63:27:82:3f:
         09:f8:1c:d4:9b:30:91:13:f4:ca:d7:c7:a9:b2:e3:63:87:54:
         c7:63:b7:67:cf:0e:f2:dd:0c:26:fe:b8:8f:7b:c1:1f:5e:9a:
         a8:a6:d5:2a:8a:7e:c4:56:1f:81:8e:99:e9:c0:7b:de:9c:a7:
         f9:6a:11:89:7c:9e:6d:0c:71:0d:b8:ae:6d:33:d5:01:8e:01:
         ce:6f:0b:4a:d9:10:cf:b2:82:87:7a:0d:3a:51:fe:7f:08:94:
         30:6a:2d:c9:1b:6f:40:04:f6:08:40:0c:30:ac:37:d1:9d:da:
         ad:78:c0:e5:f0:1d:33:f3:a0:28:ff:51:2a:c4:7c:39:e2:bf:
         ee:f4:cc:67
-----BEGIN CERTIFICATE-----
MIIFfDCCBGSgAwIBAgIBATANBgkqhkiG9w0BAQsFADCBtjELMAkGA1UEBhMCVVMx
CzAJBgNVBAgTAkNBMRUwEwYDVQQHEwxTYW5GcmFuY2lzY28xFTATBgNVBAoTDEZv
cnQtRnVuc3RvbjEdMBsGA1UECxMUTXlPcmdhbml6YXRpb25hbFVuaXQxGDAWBgNV
BAMTD0ZvcnQtRnVuc3RvbiBDQTEQMA4GA1UEKRMHRWFzeVJTQTEhMB8GCSqGSIb3
DQEJARYSbWVAbXlob3N0Lm15ZG9tYWluMB4XDTE3MDUyNjIyMDEzN1oXDTI3MDUy
NDIyMDEzN1owga0xCzAJBgNVBAYTAlVTMQswCQYDVQQIEwJDQTEVMBMGA1UEBxMM
U2FuRnJhbmNpc2NvMRUwEwYDVQQKEwxGb3J0LUZ1bnN0b24xHTAbBgNVBAsTFE15
T3JnYW5pemF0aW9uYWxVbml0MQ8wDQYDVQQDEwZzZXJ2ZXIxEDAOBgNVBCkTB0Vh
c3lSU0ExITAfBgkqhkiG9w0BCQEWEm1lQG15aG9zdC5teWRvbWFpbjCCASIwDQYJ
KoZIhvcNAQEBBQADggEPADCCAQoCggEBAMbQoZ8IKLPe+gc/IipZxJAm3IsNPhVE
oCwAtZ1i65D6Zdb03RcW3QyMJKla36BVVtJRgGa4Zs5e1fIp649D+1xVCw13pMdz
UXo7IbQNrvODP6zgFXN2cmEGxNmVFGmDFyHg+oYsYSwjLPD7AlOQMT+GEFnpLpGL
h3/g7IP9PSJgc6By22S2Ip0BDd4iHLaEUqGoCQA8yPDosfcE8NU0Ozwqx1GyvoiJ
PNavP42c8WAwJabOLezdXd2+Ihf8xy7MIKhGBpNRSIYDVQzmxaUIaSHuxcxZmN7B
E8mnwfdlM1pjEwH0Vi8kogvu/UTagPxwhSBMFcKiZ8jZh5RflLNcwLsCAwEAAaOC
AZowggGWMAkGA1UdEwQCMAAwEQYJYIZIAYb4QgEBBAQDAgZAMDQGCWCGSAGG+EIB
DQQnFiVFYXN5LVJTQSBHZW5lcmF0ZWQgU2VydmVyIENlcnRpZmljYXRlMB0GA1Ud
DgQWBBQHkIP7BBi1qTyvWFz+/CBiLzYU/TCB6wYDVR0jBIHjMIHggBTml6fQPJUC
2Mdff3k82wc0IbMTgaGBvKSBuTCBtjELMAkGA1UEBhMCVVMxCzAJBgNVBAgTAkNB
MRUwEwYDVQQHEwxTYW5GcmFuY2lzY28xFTATBgNVBAoTDEZvcnQtRnVuc3RvbjEd
MBsGA1UECxMUTXlPcmdhbml6YXRpb25hbFVuaXQxGDAWBgNVBAMTD0ZvcnQtRnVu
c3RvbiBDQTEQMA4GA1UEKRMHRWFzeVJTQTEhMB8GCSqGSIb3DQEJARYSbWVAbXlo
b3N0Lm15ZG9tYWluggkAv4yXDWYA96EwEwYDVR0lBAwwCgYIKwYBBQUHAwEwCwYD
VR0PBAQDAgWgMBEGA1UdEQQKMAiCBnNlcnZlcjANBgkqhkiG9w0BAQsFAAOCAQEA
KVcp45GClhi/WLQzWV+mar3v8CkWO7A56br15C/6Odzd8k+Bd23EYeD7HEBlDotD
a9f0cMS6vSiviqXw1uqvXcEjlAaUW435SVC2glzqFiQcb7OmOo4/H/eImRgyNI9Q
AwcOQs+f0Phyry+Sdfd/06sTywlMewQjCdZjJ4I/Cfgc1JswkRP0ytfHqbLjY4dU
x2O3Z88O8t0MJv64j3vBH16aqKbVKop+xFYfgY6Z6cB73pyn+WoRiXyebQxxDbiu
bTPVAY4Bzm8LStkQz7KCh3oNOlH+fwiUMGotyRtvQAT2CEAMMKw30Z3arXjA5fAd
M/OgKP9RKsR8OeK/7vTMZw==
-----END CERTIFICATE-----
