Certificate:
    Data:
        Version: 3 (0x2)
        Serial Number: 1 (0x1)
    Signature Algorithm: sha256WithRSAEncryption
        Issuer: C=US, ST=CA, L=SanFrancisco, O=Fort-Funston, OU=MyOrganizationalUnit, CN=Fort-Funston CA/name=EasyRSA/emailAddress=me@myhost.mydomain
        Validity
            Not Before: Aug 28 19:22:20 2017 GMT
            Not After : Aug 26 19:22:20 2027 GMT
        Subject: C=US, ST=CA, L=SanFrancisco, O=Fort-Funston, OU=MyOrganizationalUnit, CN=server/name=EasyRSA/emailAddress=me@myhost.mydomain
        Subject Public Key Info:
            Public Key Algorithm: rsaEncryption
                Public-Key: (2048 bit)
                Modulus:
                    00:c0:81:34:f2:20:f8:4b:bc:82:52:90:e1:d2:eb:
                    02:25:e7:31:89:45:c0:45:dd:3a:89:31:2b:4d:f2:
                    7b:29:5e:12:4d:7a:3d:6f:7c:88:14:87:24:0c:dc:
                    f6:b4:39:f0:c1:58:f6:81:ee:22:11:d1:78:3c:e9:
                    65:62:30:30:85:c1:99:1f:f1:8c:91:32:07:6b:2e:
                    89:3d:b9:81:7b:37:df:e4:2f:0a:22:7f:bd:d1:c6:
                    24:bd:2d:a2:6b:a3:00:cf:1f:a3:58:2f:7b:5d:87:
                    05:53:2a:c0:52:5a:30:5f:5f:e6:85:69:40:53:e6:
                    8b:18:49:ed:a4:14:b5:5c:d1:ef:b2:7c:43:36:a4:
                    23:ee:4a:85:12:6b:d1:02:55:d2:50:68:c5:25:84:
                    c8:05:8b:84:a1:a5:c7:69:22:82:8b:41:58:5b:ab:
                    a2:f0:04:3a:cb:2e:f3:2d:49:78:f4:0c:b7:43:03:
                    0f:7a:a9:47:8d:7f:24:4c:d8:7c:b1:8b:07:ab:23:
                    9a:07:06:6c:1d:2a:54:b8:70:33:7b:8b:28:b3:bf:
                    a4:2d:5e:96:0e:20:ed:c9:d3:82:7a:0b:19:c4:08:
                    27:47:c0:01:6c:55:ed:f2:bd:df:1f:34:16:f6:94:
                    dd:e9:91:b4:e1:b0:29:bc:8d:77:0e:a1:e3:0a:57:
                    1e:2d
                Exponent: 65537 (0x10001)
        X509v3 extensions:
            X509v3 Basic Constraints: 
                CA:FALSE
            Netscape Cert Type: 
                SSL Server
            Netscape Comment: 
                Easy-RSA Generated Server Certificate
            X509v3 Subject Key Identifier: 
                5D:80:F0:71:FE:AE:97:36:25:79:6F:68:50:D8:A3:D0:66:70:85:4F
            X509v3 Authority Key Identifier: 
                keyid:A1:79:C2:56:B7:E1:D1:16:CF:3A:34:4A:1A:2E:E8:A6:F3:A1:BF:30
                DirName:/C=US/ST=CA/L=SanFrancisco/O=Fort-Funston/OU=MyOrganizationalUnit/CN=Fort-Funston CA/name=EasyRSA/emailAddress=me@myhost.mydomain
                serial:9E:5C:AD:10:FE:57:4D:D3

            X509v3 Extended Key Usage: 
                TLS Web Server Authentication
            X509v3 Key Usage: 
                Digital Signature, Key Encipherment
            X509v3 Subject Alternative Name: 
                DNS:server
    Signature Algorithm: sha256WithRSAEncryption
         a0:dd:ac:e6:9d:8c:27:4d:bd:31:32:63:10:e6:97:7a:6c:3e:
         71:26:99:b9:f5:59:38:0f:e5:09:8f:15:df:f5:a9:58:a3:61:
         58:44:19:55:7e:ab:67:fd:8a:24:61:85:9b:e5:33:29:73:b8:
         94:56:ff:0d:4d:4d:95:02:70:51:dc:a0:5d:c1:41:18:4e:5f:
         87:be:79:1f:d0:72:a2:af:1f:8c:10:45:e1:44:81:17:0e:a7:
         70:65:6e:65:2a:ee:69:55:44:57:4a:e7:7f:a8:1c:3c:db:46:
         48:96:c3:73:2c:4f:50:08:c2:1d:41:7b:ea:d1:22:54:b7:19:
         63:d5:ba:52:43:3e:1d:07:be:da:7e:e8:77:bb:33:3d:7f:f3:
         7c:5a:3c:ea:40:d0:63:e0:3b:f5:73:fc:79:d1:db:8e:cb:3b:
         39:96:ce:a2:c3:7d:a4:73:9a:7d:98:69:5f:27:90:1c:d6:4e:
         4c:ae:ba:fb:fb:cd:fd:dd:d6:5c:e0:26:0b:f6:90:3a:18:27:
         a3:25:aa:e7:6e:fa:3d:df:36:20:65:60:e9:5a:ba:8c:cb:40:
         f6:64:72:47:b1:07:be:bc:20:c7:9f:b5:8a:f2:0d:0f:36:23:
         09:55:00:de:19:45:ab:46:07:d5:16:d7:56:23:af:ae:ac:d0:
         77:5c:f6:f0
-----BEGIN CERTIFICATE-----
MIIFfDCCBGSgAwIBAgIBATANBgkqhkiG9w0BAQsFADCBtjELMAkGA1UEBhMCVVMx
CzAJBgNVBAgTAkNBMRUwEwYDVQQHEwxTYW5GcmFuY2lzY28xFTATBgNVBAoTDEZv
cnQtRnVuc3RvbjEdMBsGA1UECxMUTXlPcmdhbml6YXRpb25hbFVuaXQxGDAWBgNV
BAMTD0ZvcnQtRnVuc3RvbiBDQTEQMA4GA1UEKRMHRWFzeVJTQTEhMB8GCSqGSIb3
DQEJARYSbWVAbXlob3N0Lm15ZG9tYWluMB4XDTE3MDgyODE5MjIyMFoXDTI3MDgy
NjE5MjIyMFowga0xCzAJBgNVBAYTAlVTMQswCQYDVQQIEwJDQTEVMBMGA1UEBxMM
U2FuRnJhbmNpc2NvMRUwEwYDVQQKEwxGb3J0LUZ1bnN0b24xHTAbBgNVBAsTFE15
T3JnYW5pemF0aW9uYWxVbml0MQ8wDQYDVQQDEwZzZXJ2ZXIxEDAOBgNVBCkTB0Vh
c3lSU0ExITAfBgkqhkiG9w0BCQEWEm1lQG15aG9zdC5teWRvbWFpbjCCASIwDQYJ
KoZIhvcNAQEBBQADggEPADCCAQoCggEBAMCBNPIg+Eu8glKQ4dLrAiXnMYlFwEXd
OokxK03yeyleEk16PW98iBSHJAzc9rQ58MFY9oHuIhHReDzpZWIwMIXBmR/xjJEy
B2suiT25gXs33+QvCiJ/vdHGJL0tomujAM8fo1gve12HBVMqwFJaMF9f5oVpQFPm
ixhJ7aQUtVzR77J8QzakI+5KhRJr0QJV0lBoxSWEyAWLhKGlx2kigotBWFurovAE
Ossu8y1JePQMt0MDD3qpR41/JEzYfLGLB6sjmgcGbB0qVLhwM3uLKLO/pC1elg4g
7cnTgnoLGcQIJ0fAAWxV7fK93x80FvaU3emRtOGwKbyNdw6h4wpXHi0CAwEAAaOC
AZowggGWMAkGA1UdEwQCMAAwEQYJYIZIAYb4QgEBBAQDAgZAMDQGCWCGSAGG+EIB
DQQnFiVFYXN5LVJTQSBHZW5lcmF0ZWQgU2VydmVyIENlcnRpZmljYXRlMB0GA1Ud
DgQWBBRdgPBx/q6XNiV5b2hQ2KPQZnCFTzCB6wYDVR0jBIHjMIHggBShecJWt+HR
Fs86NEoaLuim86G/MKGBvKSBuTCBtjELMAkGA1UEBhMCVVMxCzAJBgNVBAgTAkNB
MRUwEwYDVQQHEwxTYW5GcmFuY2lzY28xFTATBgNVBAoTDEZvcnQtRnVuc3RvbjEd
MBsGA1UECxMUTXlPcmdhbml6YXRpb25hbFVuaXQxGDAWBgNVBAMTD0ZvcnQtRnVu
c3RvbiBDQTEQMA4GA1UEKRMHRWFzeVJTQTEhMB8GCSqGSIb3DQEJARYSbWVAbXlo
b3N0Lm15ZG9tYWluggkAnlytEP5XTdMwEwYDVR0lBAwwCgYIKwYBBQUHAwEwCwYD
VR0PBAQDAgWgMBEGA1UdEQQKMAiCBnNlcnZlcjANBgkqhkiG9w0BAQsFAAOCAQEA
oN2s5p2MJ029MTJjEOaXemw+cSaZufVZOA/lCY8V3/WpWKNhWEQZVX6rZ/2KJGGF
m+UzKXO4lFb/DU1NlQJwUdygXcFBGE5fh755H9Byoq8fjBBF4USBFw6ncGVuZSru
aVVEV0rnf6gcPNtGSJbDcyxPUAjCHUF76tEiVLcZY9W6UkM+HQe+2n7od7szPX/z
fFo86kDQY+A79XP8edHbjss7OZbOosN9pHOafZhpXyeQHNZOTK66+/vN/d3WXOAm
C/aQOhgnoyWq5276Pd82IGVg6Vq6jMtA9mRyR7EHvrwgx5+1ivINDzYjCVUA3hlF
q0YH1RbXViOvrqzQd1z28A==
-----END CERTIFICATE-----
